; Function Attrs: mustprogress uwtable
define void @_ZN5faiss17InterruptCallback5checkEv() local_unnamed_addr #0 align 2 personality ptr @__gxx_personality_v0 {
  %1 = alloca %"class.std::__cxx11::basic_string", align 8
  %2 = alloca %"class.std::allocator", align 1
  %3 = load ptr, ptr @_ZN5faiss17InterruptCallback8instanceE, align 8
  %.not = icmp eq ptr %3, null
  br i1 %.not, label %16, label %4

4:                                                ; preds = %0
  %5 = load ptr, ptr %3, align 8
  %6 = load ptr, ptr %5, align 8
  %7 = tail call noundef zeroext i1 %6(ptr noundef nonnull align 8 dereferenceable(8) %3)
  br i1 %7, label %8, label %16

8:                                                ; preds = %4
  %9 = tail call ptr @__cxa_allocate_exception(i64 40) #14
  call void @_ZNSaIcEC1Ev(ptr noundef nonnull align 1 dereferenceable(1) %2) #14
  invoke void @_ZNSt7__cxx1112basic_stringIcSt11char_traitsIcESaIcEEC2IS3_EEPKcRKS3_(ptr noundef nonnull align 8 dereferenceable(32) %1, ptr noundef nonnull @.str.6, ptr noundef nonnull align 1 dereferenceable(1) %2)
          to label %10 unwind label %.thread

10:                                               ; preds = %8
  invoke void @_ZN5faiss14FaissExceptionC1ERKNSt7__cxx1112basic_stringIcSt11char_traitsIcESaIcEEEPKcSA_i(ptr noundef nonnull align 8 dereferenceable(40) %9, ptr noundef nonnull align 8 dereferenceable(32) %1, ptr noundef nonnull @__PRETTY_FUNCTION__._ZN5faiss17InterruptCallback5checkEv, ptr noundef nonnull @.str.2, i32 noundef 219)
          to label %11 unwind label %13

11:                                               ; preds = %10
  invoke void @__cxa_throw(ptr nonnull %9, ptr nonnull @_ZTIN5faiss14FaissExceptionE, ptr nonnull @_ZN5faiss14FaissExceptionD2Ev) #21
          to label %18 unwind label %13

.thread:                                          ; preds = %8
  %12 = landingpad { ptr, i32 }
          cleanup
  call void @_ZNSaIcED1Ev(ptr noundef nonnull align 1 dereferenceable(1) %2) #14
  br label %15

13:                                               ; preds = %10, %11
  %.0 = phi i1 [ false, %11 ], [ true, %10 ]
  %14 = landingpad { ptr, i32 }
          cleanup
  call void @_ZNSt7__cxx1112basic_stringIcSt11char_traitsIcESaIcEED1Ev(ptr noundef nonnull align 8 dereferenceable(32) %1) #14
  call void @_ZNSaIcED1Ev(ptr noundef nonnull align 1 dereferenceable(1) %2) #14
  br i1 %.0, label %15, label %17

15:                                               ; preds = %.thread, %13
  %.pn8 = phi { ptr, i32 } [ %12, %.thread ], [ %14, %13 ]
  call void @__cxa_free_exception(ptr %9) #14
  br label %17

16:                                               ; preds = %0, %4
  ret void

17:                                               ; preds = %13, %15
  %.pn7 = phi { ptr, i32 } [ %14, %13 ], [ %.pn8, %15 ]
  resume { ptr, i32 } %.pn7

18:                                               ; preds = %11
  unreachable
}